target datalayout = "e-m:e-p270:32:32-p271:32:32-p272:64:64-i64:64-i128:128-f80:128-n8:16:32:64-S128"
target triple = "x86_64-pc-linux-gnu"

%struct.jit_State = type { %struct.GCtrace, ptr, ptr, ptr, ptr, ptr, ptr, i32, i32, i32, i8, i8, %struct.IRType1, i8, %struct.FoldState, ptr, i32, i32, i32, i32, i32, i32, i32, [1 x i32], [5 x %union.TValue], [3 x %union.TValue], ptr, i32, i32, i32, i32, ptr, ptr, i32, i32, i8, ptr, i32, i32, i16, [101 x i16], [258 x i32], [15 x i32], [16 x ptr], [64 x %struct.HotPenalty], i32, [16 x %struct.BPropEntry], i32, %struct.ScEvEntry, ptr, i32, i32, i32, ptr, i32, i32, ptr, ptr, ptr, i64, i64, %union.TValue, ptr, i32, i32 }
%struct.GCtrace = type { %struct.GCRef, i8, i8, i16, i32, i32, %struct.GCRef, ptr, i32, i32, ptr, ptr, %struct.GCRef, %struct.MRef, i32, i32, ptr, i32, i16, i16, i16, i16, i16, i16, i16, i8, i8, i8, i8 }
%struct.GCRef = type { i64 }
%struct.MRef = type { i64 }
%struct.IRType1 = type { i8 }
%struct.FoldState = type { %union.IRIns, [2 x %union.IRIns], [2 x %union.IRIns] }
%union.IRIns = type { %struct.GCRef }
%struct.HotPenalty = type { %struct.MRef, i16, i16 }
%struct.BPropEntry = type { i16, i16, i32 }
%struct.ScEvEntry = type { %struct.MRef, i16, i16, i16, i16, %struct.IRType1, i8 }
%union.TValue = type { i64 }
%struct.anon = type { i16, i16, i16, i16 }
%struct.GCtab = type { %struct.GCRef, i8, i8, i8, i8, %struct.MRef, %struct.GCRef, %struct.GCRef, %struct.MRef, i32, i32, %struct.MRef }

; Function Attrs: nounwind uwtable
define internal i32 @fold_fload_tab_tdup_hmask(ptr noundef %0) #0 {
  %2 = alloca i32, align 4
  %3 = alloca ptr, align 8
  store ptr %0, ptr %3, align 8, !tbaa !4
  %4 = load ptr, ptr %3, align 8, !tbaa !4
  %5 = getelementptr inbounds nuw %struct.jit_State, ptr %4, i32 0, i32 7
  %6 = load i32, ptr %5, align 8, !tbaa !9
  %7 = and i32 %6, 65536
  %8 = icmp ne i32 %7, 0
  %9 = xor i1 %8, true
  %10 = xor i1 %9, true
  %11 = zext i1 %10 to i32
  %12 = sext i32 %11 to i64
  %13 = call i64 @llvm.expect.i64(i64 %12, i64 1)
  %14 = icmp ne i64 %13, 0
  br i1 %14, label %15, label %47

15:                                               ; preds = %1
  %16 = load ptr, ptr %3, align 8, !tbaa !4
  %17 = load ptr, ptr %3, align 8, !tbaa !4
  %18 = getelementptr inbounds nuw %struct.jit_State, ptr %17, i32 0, i32 14
  %19 = getelementptr inbounds nuw %struct.FoldState, ptr %18, i32 0, i32 0
  %20 = getelementptr inbounds nuw %struct.anon, ptr %19, i32 0, i32 0
  %21 = load i16, ptr %20, align 8, !tbaa !29
  %22 = zext i16 %21 to i32
  %23 = call i32 @lj_opt_fwd_tptr(ptr noundef %16, i32 noundef %22)
  %24 = icmp ne i32 %23, 0
  br i1 %24, label %25, label %47

25:                                               ; preds = %15
  %26 = load ptr, ptr %3, align 8, !tbaa !4
  %27 = getelementptr inbounds nuw %struct.jit_State, ptr %26, i32 0, i32 0
  %28 = getelementptr inbounds nuw %struct.GCtrace, ptr %27, i32 0, i32 7
  %29 = load ptr, ptr %28, align 8, !tbaa !32
  %30 = load ptr, ptr %3, align 8, !tbaa !4
  %31 = getelementptr inbounds nuw %struct.jit_State, ptr %30, i32 0, i32 14
  %32 = getelementptr inbounds nuw %struct.FoldState, ptr %31, i32 0, i32 1
  %33 = getelementptr inbounds [2 x %union.IRIns], ptr %32, i64 0, i64 0
  %34 = getelementptr inbounds nuw %struct.anon, ptr %33, i32 0, i32 0
  %35 = load i16, ptr %34, align 8, !tbaa !29
  %36 = zext i16 %35 to i64
  %37 = getelementptr inbounds nuw %union.IRIns, ptr %29, i64 %36
  %38 = getelementptr inbounds %union.IRIns, ptr %37, i64 1
  %39 = getelementptr inbounds nuw %struct.GCRef, ptr %38, i32 0, i32 0
  %40 = load i64, ptr %39, align 8, !tbaa !29
  %41 = inttoptr i64 %40 to ptr
  %42 = getelementptr inbounds nuw %struct.GCtab, ptr %41, i32 0, i32 10
  %43 = load i32, ptr %42, align 4, !tbaa !29
  %44 = load ptr, ptr %3, align 8, !tbaa !4
  %45 = getelementptr inbounds nuw %struct.jit_State, ptr %44, i32 0, i32 14
  %46 = getelementptr inbounds nuw %struct.FoldState, ptr %45, i32 0, i32 0
  store i32 %43, ptr %46, align 8, !tbaa !29
  store i32 2, ptr %2, align 4
  br label %48

47:                                               ; preds = %15, %1
  store i32 0, ptr %2, align 4
  br label %48

48:                                               ; preds = %47, %25
  %49 = load i32, ptr %2, align 4
  ret i32 %49
}