; Function Attrs: nounwind uwtable
define internal range(i32 0, 3) i32 @fold_fload_tab_tdup_hmask(ptr noundef %0) #0 {
  %2 = getelementptr inbounds nuw i8, ptr %0, i64 168
  %3 = load i32, ptr %2, align 8, !tbaa !4
  %4 = and i32 %3, 65536
  %.not = icmp eq i32 %4, 0
  br i1 %.not, label %22, label %5, !prof !33

5:                                                ; preds = %1
  %6 = getelementptr inbounds nuw i8, ptr %0, i64 184
  %7 = load i16, ptr %6, align 8, !tbaa !28
  %8 = zext i16 %7 to i32
  %9 = tail call i32 @lj_opt_fwd_tptr(ptr noundef nonnull %0, i32 noundef %8) #12
  %.not6 = icmp eq i32 %9, 0
  br i1 %.not6, label %22, label %10

10:                                               ; preds = %5
  %11 = getelementptr inbounds nuw i8, ptr %0, i64 32
  %12 = load ptr, ptr %11, align 8, !tbaa !30
  %13 = getelementptr inbounds nuw i8, ptr %0, i64 192
  %14 = load i16, ptr %13, align 8, !tbaa !28
  %15 = zext i16 %14 to i64
  %16 = getelementptr inbounds nuw %union.IRIns, ptr %12, i64 %15
  %17 = getelementptr inbounds nuw i8, ptr %16, i64 8
  %18 = load i64, ptr %17, align 8, !tbaa !28
  %19 = inttoptr i64 %18 to ptr
  %20 = getelementptr inbounds nuw i8, ptr %19, i64 52
  %21 = load i32, ptr %20, align 4, !tbaa !28
  store i32 %21, ptr %6, align 8, !tbaa !28
  br label %22

22:                                               ; preds = %1, %5, %10
  %.0 = phi i32 [ 2, %10 ], [ 0, %5 ], [ 0, %1 ]
  ret i32 %.0
}